target datalayout = "e-m:e-p270:32:32-p271:32:32-p272:64:64-i64:64-i128:128-f80:128-n8:16:32:64-S128"
target triple = "x86_64-pc-linux-gnu"

%"class.boost::detail::shared_count" = type { ptr }
%"class.boost::log::v2_mt_posix::core" = type { ptr }
%"struct.boost::log::v2_mt_posix::core::implementation" = type { %"class.boost::log::v2_mt_posix::aux::light_rw_mutex", %"class.std::vector", %"class.boost::shared_ptr", %"class.boost::log::v2_mt_posix::attribute_set", %"class.boost::thread_specific_ptr", %"class.boost::atomics::atomic.5", %"class.boost::log::v2_mt_posix::filter", %"class.boost::log::v2_mt_posix::aux::light_function.8" }
%"class.boost::log::v2_mt_posix::aux::light_rw_mutex" = type { %union.pthread_rwlock_t }
%union.pthread_rwlock_t = type { %struct.__pthread_rwlock_arch_t }
%struct.__pthread_rwlock_arch_t = type { i32, i32, i32, i32, i32, i32, i32, i32, i8, [7 x i8], i64, i32 }
%"class.std::vector" = type { %"struct.std::_Vector_base" }
%"struct.std::_Vector_base" = type { %"struct.std::_Vector_base<boost::shared_ptr<boost::log::v2_mt_posix::sinks::sink>, std::allocator<boost::shared_ptr<boost::log::v2_mt_posix::sinks::sink>>>::_Vector_impl" }
%"struct.std::_Vector_base<boost::shared_ptr<boost::log::v2_mt_posix::sinks::sink>, std::allocator<boost::shared_ptr<boost::log::v2_mt_posix::sinks::sink>>>::_Vector_impl" = type { %"struct.std::_Vector_base<boost::shared_ptr<boost::log::v2_mt_posix::sinks::sink>, std::allocator<boost::shared_ptr<boost::log::v2_mt_posix::sinks::sink>>>::_Vector_impl_data" }
%"struct.std::_Vector_base<boost::shared_ptr<boost::log::v2_mt_posix::sinks::sink>, std::allocator<boost::shared_ptr<boost::log::v2_mt_posix::sinks::sink>>>::_Vector_impl_data" = type { ptr, ptr, ptr }
%"class.boost::shared_ptr" = type { ptr, %"class.boost::detail::shared_count" }
%"class.boost::log::v2_mt_posix::attribute_set" = type { ptr }
%"class.boost::thread_specific_ptr" = type { ptr }
%"class.boost::atomics::atomic.5" = type { %"class.boost::atomics::detail::base_atomic.6" }
%"class.boost::atomics::detail::base_atomic.6" = type { %"class.boost::atomics::detail::base_atomic_common.7" }
%"class.boost::atomics::detail::base_atomic_common.7" = type { i8 }
%"class.boost::log::v2_mt_posix::filter" = type { %"class.boost::log::v2_mt_posix::aux::light_function" }
%"class.boost::log::v2_mt_posix::aux::light_function" = type { ptr }
%"class.boost::log::v2_mt_posix::aux::light_function.8" = type { ptr }
%"struct.boost::log::v2_mt_posix::aux::exclusive_lock_guard" = type { ptr }
%"class.boost::log::v2_mt_posix::attribute_set::iter" = type { ptr }

; Function Attrs: noinline noreturn nounwind uwtable
define linkonce_odr hidden void @__clang_call_terminate(ptr noundef %0) #0 comdat {
  %2 = call ptr @__cxa_begin_catch(ptr %0) #17
  call void @_ZSt9terminatev() #20
  unreachable
}

; Function Attrs: mustprogress nounwind uwtable
define linkonce_odr hidden void @_ZN5boost3log11v2_mt_posix3aux14light_rw_mutex6unlockEv(ptr noundef nonnull align 8 dereferenceable(56) %0) #2 comdat align 2 {
  %2 = alloca ptr, align 8
  store ptr %0, ptr %2, align 8, !tbaa !3
  %3 = load ptr, ptr %2, align 8
  %4 = getelementptr inbounds nuw %"class.boost::log::v2_mt_posix::aux::light_rw_mutex", ptr %3, i32 0, i32 0
  %5 = call i32 @pthread_rwlock_unlock(ptr noundef %4) #17
  ret void
}

; Function Attrs: mustprogress nounwind uwtable
define linkonce_odr hidden void @_ZN5boost3log11v2_mt_posix3aux14light_rw_mutex4lockEv(ptr noundef nonnull align 8 dereferenceable(56) %0) #2 comdat align 2 {
  %2 = alloca ptr, align 8
  store ptr %0, ptr %2, align 8, !tbaa !3
  %3 = load ptr, ptr %2, align 8
  %4 = getelementptr inbounds nuw %"class.boost::log::v2_mt_posix::aux::light_rw_mutex", ptr %3, i32 0, i32 0
  %5 = call i32 @pthread_rwlock_wrlock(ptr noundef %4) #17
  ret void
}

; Function Attrs: mustprogress nounwind uwtable
define linkonce_odr hidden void @_ZN5boost3log11v2_mt_posix3aux20exclusive_lock_guardINS2_14light_rw_mutexEED2Ev(ptr noundef nonnull align 8 dereferenceable(8) %0) unnamed_addr #2 comdat align 2 personality ptr @__gxx_personality_v0 {
  %2 = alloca ptr, align 8
  store ptr %0, ptr %2, align 8, !tbaa !3
  %3 = load ptr, ptr %2, align 8
  %4 = getelementptr inbounds nuw %"struct.boost::log::v2_mt_posix::aux::exclusive_lock_guard", ptr %3, i32 0, i32 0
  %5 = load ptr, ptr %4, align 8, !tbaa !46
  invoke void @_ZN5boost3log11v2_mt_posix3aux14light_rw_mutex6unlockEv(ptr noundef nonnull align 8 dereferenceable(56) %5)
          to label %6 unwind label %7

6:                                                ; preds = %1
  ret void

7:                                                ; preds = %1
  %8 = landingpad { ptr, i32 }
          catch ptr null
  %9 = extractvalue { ptr, i32 } %8, 0
  call void @__clang_call_terminate(ptr %9) #20
  unreachable
}

; Function Attrs: mustprogress uwtable
define linkonce_odr hidden void @_ZN5boost3log11v2_mt_posix3aux20exclusive_lock_guardINS2_14light_rw_mutexEEC2ERS4_(ptr noundef nonnull align 8 dereferenceable(8) %0, ptr noundef nonnull align 8 dereferenceable(56) %1) unnamed_addr #3 comdat align 2 {
  %3 = alloca ptr, align 8
  %4 = alloca ptr, align 8
  store ptr %0, ptr %3, align 8, !tbaa !3
  store ptr %1, ptr %4, align 8, !tbaa !3
  %5 = load ptr, ptr %3, align 8
  %6 = getelementptr inbounds nuw %"struct.boost::log::v2_mt_posix::aux::exclusive_lock_guard", ptr %5, i32 0, i32 0
  %7 = load ptr, ptr %4, align 8, !tbaa !3
  store ptr %7, ptr %6, align 8, !tbaa !3
  %8 = load ptr, ptr %4, align 8, !tbaa !3
  call void @_ZN5boost3log11v2_mt_posix3aux14light_rw_mutex4lockEv(ptr noundef nonnull align 8 dereferenceable(56) %8)
  ret void
}

; Function Attrs: mustprogress uwtable
define void @_ZN5boost3log11v2_mt_posix4core23remove_global_attributeENS1_13attribute_set4iterILb0EEE(ptr noundef nonnull align 8 dereferenceable(8) %0, ptr %1) #3 align 2 {
  %3 = alloca %"class.boost::log::v2_mt_posix::attribute_set::iter", align 8
  %4 = alloca ptr, align 8
  %5 = alloca %"struct.boost::log::v2_mt_posix::aux::exclusive_lock_guard", align 8
  %6 = alloca %"class.boost::log::v2_mt_posix::attribute_set::iter", align 8
  %7 = getelementptr inbounds nuw %"class.boost::log::v2_mt_posix::attribute_set::iter", ptr %3, i32 0, i32 0
  store ptr %1, ptr %7, align 8
  store ptr %0, ptr %4, align 8, !tbaa !3
  %8 = load ptr, ptr %4, align 8
  call void @llvm.lifetime.start.p0(i64 8, ptr %5) #17
  %9 = getelementptr inbounds nuw %"class.boost::log::v2_mt_posix::core", ptr %8, i32 0, i32 0
  %10 = load ptr, ptr %9, align 8, !tbaa !33
  %11 = getelementptr inbounds nuw %"struct.boost::log::v2_mt_posix::core::implementation", ptr %10, i32 0, i32 0
  call void @_ZN5boost3log11v2_mt_posix3aux20exclusive_lock_guardINS2_14light_rw_mutexEEC2ERS4_(ptr noundef nonnull align 8 dereferenceable(8) %5, ptr noundef nonnull align 8 dereferenceable(56) %11)
  %12 = getelementptr inbounds nuw %"class.boost::log::v2_mt_posix::core", ptr %8, i32 0, i32 0
  %13 = load ptr, ptr %12, align 8, !tbaa !33
  %14 = getelementptr inbounds nuw %"struct.boost::log::v2_mt_posix::core::implementation", ptr %13, i32 0, i32 3
  call void @llvm.memcpy.p0.p0.i64(ptr align 8 %6, ptr align 8 %3, i64 8, i1 false), !tbaa.struct !42
  %15 = getelementptr inbounds nuw %"class.boost::log::v2_mt_posix::attribute_set::iter", ptr %6, i32 0, i32 0
  %16 = load ptr, ptr %15, align 8
  call void @_ZN5boost3log11v2_mt_posix13attribute_set5eraseENS2_4iterILb0EEE(ptr noundef nonnull align 8 dereferenceable(8) %14, ptr %16) #17
  call void @_ZN5boost3log11v2_mt_posix3aux20exclusive_lock_guardINS2_14light_rw_mutexEED2Ev(ptr noundef nonnull align 8 dereferenceable(8) %5) #17
  call void @llvm.lifetime.end.p0(i64 8, ptr %5) #17
  ret void
}