; Function Attrs: mustprogress nounwind uwtable
define void @_ZN5boost3log11v2_mt_posix4core23remove_global_attributeENS1_13attribute_set4iterILb0EEE(ptr nocapture noundef nonnull readonly align 8 dereferenceable(8) %0, ptr %1) local_unnamed_addr #3 align 2 personality ptr @__gxx_personality_v0 {
  %3 = load ptr, ptr %0, align 8, !tbaa !33
  %4 = tail call i32 @pthread_rwlock_wrlock(ptr noundef nonnull align 8 dereferenceable(56) %3) #21
  %5 = load ptr, ptr %0, align 8, !tbaa !33
  %6 = getelementptr inbounds nuw i8, ptr %5, i64 96
  tail call void @_ZN5boost3log11v2_mt_posix13attribute_set5eraseENS2_4iterILb0EEE(ptr noundef nonnull align 8 dereferenceable(8) %6, ptr %1) #21
  %7 = tail call i32 @pthread_rwlock_unlock(ptr noundef nonnull align 8 dereferenceable(56) %3) #21
  ret void
}